target datalayout = "e-m:e-p270:32:32-p271:32:32-p272:64:64-i64:64-i128:128-f80:128-n8:16:32:64-S128"
target triple = "x86_64-unknown-linux-gnu"

%"class.grpc_core::promise_filter_detail::BaseCallData" = type { %"class.grpc_core::Activity", %"class.grpc_core::Wakeable", ptr, ptr, ptr, ptr, %"class.grpc_core::Timestamp", %"class.grpc_core::CallFinalization", ptr, ptr, %"struct.std::atomic", ptr, ptr, ptr, ptr }
%"class.grpc_core::Activity" = type { %"class.grpc_core::Orphanable" }
%"class.grpc_core::Orphanable" = type { ptr }
%"class.grpc_core::Wakeable" = type { ptr }
%"class.grpc_core::Timestamp" = type { i64 }
%"class.grpc_core::CallFinalization" = type { ptr }
%"struct.std::atomic" = type { %"struct.std::__atomic_base" }
%"struct.std::__atomic_base" = type { ptr }
%struct.grpc_closure = type { %union.anon, ptr, ptr, %union.anon.9 }
%union.anon = type { ptr }
%union.anon.9 = type { i64 }
%class.anon.10 = type { i8 }
%"class.absl::lts_20230802::Status" = type { i64 }
%"struct.closure_impl::wrapped_closure" = type { ptr, ptr, %struct.grpc_closure }

@.str.1 = private unnamed_addr constant [7 x i8] c"wakeup\00", align 1

; Function Attrs: mustprogress nounwind uwtable
define linkonce_odr noundef i64 @_ZN4absl12lts_202308026Status16CodeToInlinedRepENS0_10StatusCodeE(i32 noundef %code) #5 comdat align 2 {
entry:
  %code.addr = alloca i32, align 4
  store i32 %code, ptr %code.addr, align 4
  %0 = load i32, ptr %code.addr, align 4
  %conv = sext i32 %0 to i64
  %shl = shl i64 %conv, 2
  ret i64 %shl
}

; Function Attrs: mustprogress nounwind uwtable
define linkonce_odr void @_ZN4absl12lts_202308026StatusC2Ev(ptr noundef nonnull align 8 dereferenceable(8) %this) unnamed_addr #5 comdat align 2 {
entry:
  %this.addr = alloca ptr, align 8
  store ptr %this, ptr %this.addr, align 8
  %this1 = load ptr, ptr %this.addr, align 8
  %rep_ = getelementptr inbounds %"class.absl::lts_20230802::Status", ptr %this1, i32 0, i32 0
  %call = call noundef i64 @_ZN4absl12lts_202308026Status16CodeToInlinedRepENS0_10StatusCodeE(i32 noundef 0)
  store i64 %call, ptr %rep_, align 8
  ret void
}

; Function Attrs: mustprogress nounwind uwtable
define linkonce_odr noundef ptr @_Z17grpc_closure_initP12grpc_closurePFvPvN4absl12lts_202308026StatusEES1_(ptr noundef %closure, ptr noundef %cb, ptr noundef %cb_arg) #5 comdat {
entry:
  %closure.addr = alloca ptr, align 8
  %cb.addr = alloca ptr, align 8
  %cb_arg.addr = alloca ptr, align 8
  store ptr %closure, ptr %closure.addr, align 8
  store ptr %cb, ptr %cb.addr, align 8
  store ptr %cb_arg, ptr %cb_arg.addr, align 8
  %0 = load ptr, ptr %cb.addr, align 8
  %1 = load ptr, ptr %closure.addr, align 8
  %cb1 = getelementptr inbounds %struct.grpc_closure, ptr %1, i32 0, i32 1
  store ptr %0, ptr %cb1, align 8
  %2 = load ptr, ptr %cb_arg.addr, align 8
  %3 = load ptr, ptr %closure.addr, align 8
  %cb_arg2 = getelementptr inbounds %struct.grpc_closure, ptr %3, i32 0, i32 2
  store ptr %2, ptr %cb_arg2, align 8
  %4 = load ptr, ptr %closure.addr, align 8
  %error_data = getelementptr inbounds %struct.grpc_closure, ptr %4, i32 0, i32 3
  store i64 0, ptr %error_data, align 8
  %5 = load ptr, ptr %closure.addr, align 8
  ret ptr %5
}

; Function Attrs: mustprogress uwtable
define linkonce_odr void @_ZN4absl12lts_202308028OkStatusEv(ptr noalias sret(%"class.absl::lts_20230802::Status") align 8 %agg.result) #4 comdat {
entry:
  %result.ptr = alloca ptr, align 8
  store ptr %agg.result, ptr %result.ptr, align 8
  call void @_ZN4absl12lts_202308026StatusC2Ev(ptr noundef nonnull align 8 dereferenceable(8) %agg.result)
  ret void
}

; Function Attrs: mustprogress uwtable
define linkonce_odr noundef ptr @_Z19grpc_closure_createPFvPvN4absl12lts_202308026StatusEES_(ptr noundef %cb, ptr noundef %cb_arg) #4 comdat {
entry:
  %cb.addr = alloca ptr, align 8
  %cb_arg.addr = alloca ptr, align 8
  %wc = alloca ptr, align 8
  store ptr %cb, ptr %cb.addr, align 8
  store ptr %cb_arg, ptr %cb_arg.addr, align 8
  %call = call ptr @gpr_malloc(i64 noundef 48)
  store ptr %call, ptr %wc, align 8
  %0 = load ptr, ptr %cb.addr, align 8
  %1 = load ptr, ptr %wc, align 8
  %cb1 = getelementptr inbounds %"struct.closure_impl::wrapped_closure", ptr %1, i32 0, i32 0
  store ptr %0, ptr %cb1, align 8
  %2 = load ptr, ptr %cb_arg.addr, align 8
  %3 = load ptr, ptr %wc, align 8
  %cb_arg2 = getelementptr inbounds %"struct.closure_impl::wrapped_closure", ptr %3, i32 0, i32 1
  store ptr %2, ptr %cb_arg2, align 8
  %4 = load ptr, ptr %wc, align 8
  %wrapper = getelementptr inbounds %"struct.closure_impl::wrapped_closure", ptr %4, i32 0, i32 2
  %5 = load ptr, ptr %wc, align 8
  %call3 = call noundef ptr @_Z17grpc_closure_initP12grpc_closurePFvPvN4absl12lts_202308026StatusEES1_(ptr noundef %wrapper, ptr noundef @_ZN12closure_impl15closure_wrapperEPvN4absl12lts_202308026StatusE, ptr noundef %5)
  %6 = load ptr, ptr %wc, align 8
  %wrapper4 = getelementptr inbounds %"struct.closure_impl::wrapped_closure", ptr %6, i32 0, i32 2
  ret ptr %wrapper4
}

; Function Attrs: mustprogress nounwind uwtable
define internal noundef ptr @"_ZZN9grpc_core21promise_filter_detail12BaseCallData6WakeupEtENK3$_0cvPFvPvN4absl12lts_202308026StatusEEEv"(ptr noundef nonnull align 1 dereferenceable(1) %this) #5 align 2 {
entry:
  %this.addr = alloca ptr, align 8
  store ptr %this, ptr %this.addr, align 8
  ret ptr @"_ZZN9grpc_core21promise_filter_detail12BaseCallData6WakeupEtEN3$_08__invokeEPvN4absl12lts_202308026StatusE"
}

; Function Attrs: mustprogress uwtable
define void @_ZN9grpc_core21promise_filter_detail12BaseCallData6WakeupEt(ptr noundef nonnull align 8 dereferenceable(120) %this, i16 noundef zeroext %0) unnamed_addr #4 align 2 personality ptr @__gxx_personality_v0 {
entry:
  %this.addr = alloca ptr, align 8
  %.addr = alloca i16, align 2
  %wakeup = alloca %class.anon.10, align 1
  %closure = alloca ptr, align 8
  %agg.tmp = alloca %"class.absl::lts_20230802::Status", align 8
  %exn.slot = alloca ptr, align 8
  %ehselector.slot = alloca i32, align 4
  store ptr %this, ptr %this.addr, align 8
  store i16 %0, ptr %.addr, align 2
  %this1 = load ptr, ptr %this.addr, align 8
  %call = call noundef ptr @"_ZZN9grpc_core21promise_filter_detail12BaseCallData6WakeupEtENK3$_0cvPFvPvN4absl12lts_202308026StatusEEEv"(ptr noundef nonnull align 1 dereferenceable(1) %wakeup) #3
  %call2 = call noundef ptr @_Z19grpc_closure_createPFvPvN4absl12lts_202308026StatusEES_(ptr noundef %call, ptr noundef %this1)
  store ptr %call2, ptr %closure, align 8
  %call_combiner_ = getelementptr inbounds %"class.grpc_core::promise_filter_detail::BaseCallData", ptr %this1, i32 0, i32 5
  %1 = load ptr, ptr %call_combiner_, align 8
  %2 = load ptr, ptr %closure, align 8
  call void @_ZN4absl12lts_202308028OkStatusEv(ptr sret(%"class.absl::lts_20230802::Status") align 8 %agg.tmp)
  invoke void @_ZN9grpc_core12CallCombiner5StartEP12grpc_closureN4absl12lts_202308026StatusEPKc(ptr noundef nonnull align 8 dereferenceable(96) %1, ptr noundef %2, ptr noundef %agg.tmp, ptr noundef @.str.1)
          to label %invoke.cont unwind label %lpad

invoke.cont:                                      ; preds = %entry
  call void @_ZN4absl12lts_202308026StatusD2Ev(ptr noundef nonnull align 8 dereferenceable(8) %agg.tmp) #3
  ret void

lpad:                                             ; preds = %entry
  %3 = landingpad { ptr, i32 }
          cleanup
  %4 = extractvalue { ptr, i32 } %3, 0
  store ptr %4, ptr %exn.slot, align 8
  %5 = extractvalue { ptr, i32 } %3, 1
  store i32 %5, ptr %ehselector.slot, align 4
  call void @_ZN4absl12lts_202308026StatusD2Ev(ptr noundef nonnull align 8 dereferenceable(8) %agg.tmp) #3
  br label %eh.resume

eh.resume:                                        ; preds = %lpad
  %exn = load ptr, ptr %exn.slot, align 8
  %sel = load i32, ptr %ehselector.slot, align 4
  %lpad.val = insertvalue { ptr, i32 } poison, ptr %exn, 0
  %lpad.val3 = insertvalue { ptr, i32 } %lpad.val, i32 %sel, 1
  resume { ptr, i32 } %lpad.val3
}