; Function Attrs: mustprogress uwtable
define void @_ZN9grpc_core21promise_filter_detail12BaseCallData6WakeupEt(ptr noundef nonnull align 8 dereferenceable(120) %this, i16 zeroext %0) unnamed_addr #3 align 2 personality ptr @__gxx_personality_v0 {
entry:
  %agg.tmp = alloca %"class.absl::lts_20230802::Status", align 8
  %call.i = tail call ptr @gpr_malloc(i64 noundef 48)
  store ptr @"_ZZN9grpc_core21promise_filter_detail12BaseCallData6WakeupEtEN3$_08__invokeEPvN4absl12lts_202308026StatusE", ptr %call.i, align 8
  %cb_arg2.i = getelementptr inbounds i8, ptr %call.i, i64 8
  store ptr %this, ptr %cb_arg2.i, align 8
  %wrapper.i = getelementptr inbounds i8, ptr %call.i, i64 16
  %cb1.i.i = getelementptr inbounds i8, ptr %call.i, i64 24
  store ptr @_ZN12closure_impl15closure_wrapperEPvN4absl12lts_202308026StatusE, ptr %cb1.i.i, align 8
  %cb_arg2.i.i = getelementptr inbounds i8, ptr %call.i, i64 32
  store ptr %call.i, ptr %cb_arg2.i.i, align 8
  %error_data.i.i = getelementptr inbounds i8, ptr %call.i, i64 40
  store i64 0, ptr %error_data.i.i, align 8
  %call_combiner_ = getelementptr inbounds i8, ptr %this, i64 40
  %1 = load ptr, ptr %call_combiner_, align 8
  store i64 0, ptr %agg.tmp, align 8, !alias.scope !13
  invoke void @_ZN9grpc_core12CallCombiner5StartEP12grpc_closureN4absl12lts_202308026StatusEPKc(ptr noundef nonnull align 8 dereferenceable(96) %1, ptr noundef nonnull %wrapper.i, ptr noundef nonnull %agg.tmp, ptr noundef nonnull @.str.1)
          to label %invoke.cont unwind label %lpad

invoke.cont:                                      ; preds = %entry
  %2 = load i64, ptr %agg.tmp, align 8
  %and.i.i.i = and i64 %2, 1
  %cmp.i.i.i = icmp eq i64 %and.i.i.i, 0
  br i1 %cmp.i.i.i, label %_ZN4absl12lts_202308026StatusD2Ev.exit, label %if.then.i.i

if.then.i.i:                                      ; preds = %invoke.cont
  invoke void @_ZN4absl12lts_202308026Status15UnrefNonInlinedEm(i64 noundef %2)
          to label %_ZN4absl12lts_202308026StatusD2Ev.exit unwind label %terminate.lpad.i

terminate.lpad.i:                                 ; preds = %if.then.i.i
  %3 = landingpad { ptr, i32 }
          catch ptr null
  %4 = extractvalue { ptr, i32 } %3, 0
  call void @__clang_call_terminate(ptr %4) #32
  unreachable

_ZN4absl12lts_202308026StatusD2Ev.exit:           ; preds = %invoke.cont, %if.then.i.i
  ret void

lpad:                                             ; preds = %entry
  %5 = landingpad { ptr, i32 }
          cleanup
  call void @_ZN4absl12lts_202308026StatusD2Ev(ptr noundef nonnull align 8 dereferenceable(8) %agg.tmp) #31
  resume { ptr, i32 } %5
}